target datalayout = "e-m:e-p270:32:32-p271:32:32-p272:64:64-i64:64-i128:128-f80:128-n8:16:32:64-S128"
target triple = "x86_64-pc-linux-gnu"

%class.RegMask = type { %union.anon, i32, i32 }
%union.anon = type { [11 x i64] }

@_ZL8low_bits = internal constant [5 x i64] [i64 6148914691236517205, i64 1229782938247303441, i64 72340172838076673, i64 0, i64 281479271743489], align 16

; Function Attrs: mustprogress nounwind uwtable
define linkonce_odr hidden noundef i32 @_Z23count_trailing_zeros_64m(i64 noundef %0) #1 comdat {
  %2 = alloca i64, align 8
  store i64 %0, ptr %2, align 8
  %3 = load i64, ptr %2, align 8
  %4 = call i64 @llvm.cttz.i64(i64 %3, i1 true)
  %5 = trunc i64 %4 to i32
  ret i32 %5
}

; Function Attrs: mustprogress nounwind uwtable
define linkonce_odr hidden noundef i32 @_Z20count_trailing_zerosImTnNSt9enable_ifIXcvbsr3std11is_integralIT_EE5valueEiE4typeELi0ETnNS0_IXcvblestS1_Lm8EEiE4typeELi0EEjS1_(i64 noundef %0) #1 comdat {
  %2 = alloca i64, align 8
  store i64 %0, ptr %2, align 8
  %3 = load i64, ptr %2, align 8
  %4 = call noundef i32 @_Z23count_trailing_zeros_64m(i64 noundef %3)
  ret i32 %4
}

; Function Attrs: mustprogress nounwind uwtable
define internal noundef i32 @_ZL15find_lowest_bitm(i64 noundef %0) #1 {
  %2 = alloca i64, align 8
  store i64 %0, ptr %2, align 8
  %3 = load i64, ptr %2, align 8
  %4 = call noundef i32 @_Z20count_trailing_zerosImTnNSt9enable_ifIXcvbsr3std11is_integralIT_EE5valueEiE4typeELi0ETnNS0_IXcvblestS1_Lm8EEiE4typeELi0EEjS1_(i64 noundef %3)
  ret i32 %4
}

; Function Attrs: mustprogress nounwind uwtable
define hidden noundef zeroext i1 @_ZNK7RegMask15is_aligned_setsEj(ptr noundef nonnull align 8 dereferenceable(96) %0, i32 noundef %1) #1 align 2 {
  %3 = alloca i1, align 1
  %4 = alloca ptr, align 8
  %5 = alloca i32, align 4
  %6 = alloca i64, align 8
  %7 = alloca i32, align 4
  %8 = alloca i64, align 8
  %9 = alloca i64, align 8
  %10 = alloca i64, align 8
  %11 = alloca i64, align 8
  store ptr %0, ptr %4, align 8
  store i32 %1, ptr %5, align 4
  %12 = load ptr, ptr %4, align 8
  %13 = load i32, ptr %5, align 4
  %14 = icmp eq i32 %13, 1
  br i1 %14, label %15, label %16

15:                                               ; preds = %2
  store i1 true, ptr %3, align 1
  br label %77

16:                                               ; preds = %2
  %17 = load i32, ptr %5, align 4
  %18 = lshr i32 %17, 2
  %19 = zext i32 %18 to i64
  %20 = getelementptr inbounds [5 x i64], ptr @_ZL8low_bits, i64 0, i64 %19
  %21 = load i64, ptr %20, align 8
  store i64 %21, ptr %6, align 8
  %22 = getelementptr inbounds %class.RegMask, ptr %12, i32 0, i32 1
  %23 = load i32, ptr %22, align 8
  store i32 %23, ptr %7, align 4
  br label %24

24:                                               ; preds = %73, %16
  %25 = load i32, ptr %7, align 4
  %26 = getelementptr inbounds %class.RegMask, ptr %12, i32 0, i32 2
  %27 = load i32, ptr %26, align 4
  %28 = icmp ule i32 %25, %27
  br i1 %28, label %29, label %76

29:                                               ; preds = %24
  %30 = getelementptr inbounds %class.RegMask, ptr %12, i32 0, i32 0
  %31 = load i32, ptr %7, align 4
  %32 = zext i32 %31 to i64
  %33 = getelementptr inbounds [11 x i64], ptr %30, i64 0, i64 %32
  %34 = load i64, ptr %33, align 8
  store i64 %34, ptr %8, align 8
  br label %35

35:                                               ; preds = %68, %29
  %36 = load i64, ptr %8, align 8
  %37 = icmp ne i64 %36, 0
  br i1 %37, label %38, label %72

38:                                               ; preds = %35
  %39 = load i64, ptr %8, align 8
  %40 = call noundef i32 @_ZL15find_lowest_bitm(i64 noundef %39)
  %41 = zext i32 %40 to i64
  %42 = shl i64 1, %41
  store i64 %42, ptr %9, align 8
  %43 = load i64, ptr %9, align 8
  %44 = load i64, ptr %6, align 8
  %45 = and i64 %43, %44
  %46 = icmp eq i64 %45, 0
  br i1 %46, label %47, label %48

47:                                               ; preds = %38
  store i1 false, ptr %3, align 1
  br label %77

48:                                               ; preds = %38
  %49 = load i64, ptr %9, align 8
  %50 = load i32, ptr %5, align 4
  %51 = sub i32 %50, 1
  %52 = zext i32 %51 to i64
  %53 = shl i64 %49, %52
  store i64 %53, ptr %10, align 8
  %54 = load i64, ptr %10, align 8
  %55 = load i64, ptr %10, align 8
  %56 = sub i64 %55, 1
  %57 = load i64, ptr %9, align 8
  %58 = sub i64 %57, 1
  %59 = xor i64 %58, -1
  %60 = and i64 %56, %59
  %61 = add i64 %54, %60
  store i64 %61, ptr %11, align 8
  %62 = load i64, ptr %8, align 8
  %63 = load i64, ptr %11, align 8
  %64 = and i64 %62, %63
  %65 = load i64, ptr %11, align 8
  %66 = icmp ne i64 %64, %65
  br i1 %66, label %67, label %68

67:                                               ; preds = %48
  store i1 false, ptr %3, align 1
  br label %77

68:                                               ; preds = %48
  %69 = load i64, ptr %11, align 8
  %70 = load i64, ptr %8, align 8
  %71 = sub i64 %70, %69
  store i64 %71, ptr %8, align 8
  br label %35, !llvm.loop !25

72:                                               ; preds = %35
  br label %73

73:                                               ; preds = %72
  %74 = load i32, ptr %7, align 4
  %75 = add i32 %74, 1
  store i32 %75, ptr %7, align 4
  br label %24, !llvm.loop !26

76:                                               ; preds = %24
  store i1 true, ptr %3, align 1
  br label %77

77:                                               ; preds = %76, %67, %47, %15
  %78 = load i1, ptr %3, align 1
  ret i1 %78
}