; Function Attrs: mustprogress nofree norecurse nosync nounwind willreturn memory(argmem: read) uwtable
define hidden noundef zeroext i1 @_ZNK7RegMask15is_aligned_setsEj(ptr nocapture noundef nonnull readonly align 8 dereferenceable(96) %0, i32 noundef %1) local_unnamed_addr #2 align 2 {
  %3 = icmp eq i32 %1, 1
  br i1 %3, label %.loopexit, label %4

4:                                                ; preds = %2
  %5 = lshr i32 %1, 2
  %6 = zext nneg i32 %5 to i64
  %7 = getelementptr inbounds [5 x i64], ptr @_ZL8low_bits, i64 0, i64 %6
  %8 = load i64, ptr %7, align 8
  %9 = getelementptr inbounds i8, ptr %0, i64 88
  %10 = load i32, ptr %9, align 8
  %11 = getelementptr inbounds i8, ptr %0, i64 92
  %12 = load i32, ptr %11, align 4
  %.not29 = icmp ugt i32 %10, %12
  br i1 %.not29, label %.loopexit, label %.lr.ph32

.lr.ph32:                                         ; preds = %4
  %13 = add i32 %1, -1
  %14 = zext nneg i32 %13 to i64
  br label %15

15:                                               ; preds = %.lr.ph32, %._crit_edge
  %.02030 = phi i32 [ %10, %.lr.ph32 ], [ %31, %._crit_edge ]
  %16 = zext i32 %.02030 to i64
  %17 = getelementptr inbounds [11 x i64], ptr %0, i64 0, i64 %16
  %18 = load i64, ptr %17, align 8
  %.not2427 = icmp eq i64 %18, 0
  br i1 %.not2427, label %._crit_edge, label %.lr.ph

19:                                               ; preds = %24
  %20 = sub i64 %.02128, %29
  %.not24 = icmp eq i64 %20, 0
  br i1 %.not24, label %._crit_edge, label %.lr.ph, !llvm.loop !23

.lr.ph:                                           ; preds = %15, %19
  %.02128 = phi i64 [ %20, %19 ], [ %18, %15 ]
  %neg = sub i64 0, %.02128
  %21 = and i64 %.02128, %neg
  %22 = and i64 %21, %8
  %23 = icmp eq i64 %22, 0
  br i1 %23, label %.loopexit, label %24

24:                                               ; preds = %.lr.ph
  %25 = shl i64 %21, %14
  %26 = add i64 %25, -1
  %27 = sub i64 0, %21
  %28 = and i64 %26, %27
  %29 = add i64 %28, %25
  %30 = and i64 %29, %.02128
  %.not25 = icmp eq i64 %30, %29
  br i1 %.not25, label %19, label %.loopexit

._crit_edge:                                      ; preds = %19, %15
  %31 = add i32 %.02030, 1
  %.not = icmp ugt i32 %31, %12
  br i1 %.not, label %.loopexit, label %15, !llvm.loop !24

.loopexit:                                        ; preds = %._crit_edge, %24, %.lr.ph, %4, %2
  %.0 = phi i1 [ true, %2 ], [ true, %4 ], [ false, %.lr.ph ], [ false, %24 ], [ true, %._crit_edge ]
  ret i1 %.0
}